; Function Attrs: nounwind uwtable
define ptr @l_Lean_Elab_Tactic_BVDecide_Frontend_Normalize_bv__add___lambda__15(ptr noundef %0, ptr noundef %1, ptr noundef %2, ptr noundef %3, ptr noundef %4, ptr noundef %5, ptr noundef %6, ptr noundef %7, ptr noundef %8, ptr noundef %9) local_unnamed_addr #0 {
  %11 = tail call zeroext i8 @lean_expr_eqv(ptr noundef %1, ptr noundef %4) #5
  %12 = icmp eq i8 %11, 0
  br i1 %12, label %13, label %92

13:                                               ; preds = %10
  %14 = ptrtoint ptr %8 to i64
  %15 = and i64 %14, 1
  %.not = icmp eq i64 %15, 0
  br i1 %.not, label %16, label %lean_dec.exit33

16:                                               ; preds = %13
  %17 = load i32, ptr %8, align 4, !tbaa !8
  %18 = icmp sgt i32 %17, 1
  br i1 %18, label %19, label %21, !prof !11

19:                                               ; preds = %16
  %20 = add nsw i32 %17, -1
  store i32 %20, ptr %8, align 4, !tbaa !8
  br label %lean_dec.exit33

21:                                               ; preds = %16
  %.not.i = icmp eq i32 %17, 0
  br i1 %.not.i, label %lean_dec.exit33, label %22

22:                                               ; preds = %21
  tail call void @lean_dec_ref_cold(ptr noundef nonnull %8) #5
  br label %lean_dec.exit33

lean_dec.exit33:                                  ; preds = %22, %21, %19, %13
  %23 = ptrtoint ptr %7 to i64
  %24 = and i64 %23, 1
  %.not48 = icmp eq i64 %24, 0
  br i1 %.not48, label %25, label %lean_dec.exit32

25:                                               ; preds = %lean_dec.exit33
  %26 = load i32, ptr %7, align 4, !tbaa !8
  %27 = icmp sgt i32 %26, 1
  br i1 %27, label %28, label %30, !prof !11

28:                                               ; preds = %25
  %29 = add nsw i32 %26, -1
  store i32 %29, ptr %7, align 4, !tbaa !8
  br label %lean_dec.exit32

30:                                               ; preds = %25
  %.not.i34 = icmp eq i32 %26, 0
  br i1 %.not.i34, label %lean_dec.exit32, label %31

31:                                               ; preds = %30
  tail call void @lean_dec_ref_cold(ptr noundef nonnull %7) #5
  br label %lean_dec.exit32

lean_dec.exit32:                                  ; preds = %31, %30, %28, %lean_dec.exit33
  %32 = ptrtoint ptr %6 to i64
  %33 = and i64 %32, 1
  %.not49 = icmp eq i64 %33, 0
  br i1 %.not49, label %34, label %lean_dec.exit31

34:                                               ; preds = %lean_dec.exit32
  %35 = load i32, ptr %6, align 4, !tbaa !8
  %36 = icmp sgt i32 %35, 1
  br i1 %36, label %37, label %39, !prof !11

37:                                               ; preds = %34
  %38 = add nsw i32 %35, -1
  store i32 %38, ptr %6, align 4, !tbaa !8
  br label %lean_dec.exit31

39:                                               ; preds = %34
  %.not.i36 = icmp eq i32 %35, 0
  br i1 %.not.i36, label %lean_dec.exit31, label %40

40:                                               ; preds = %39
  tail call void @lean_dec_ref_cold(ptr noundef nonnull %6) #5
  br label %lean_dec.exit31

lean_dec.exit31:                                  ; preds = %40, %39, %37, %lean_dec.exit32
  %41 = ptrtoint ptr %5 to i64
  %42 = and i64 %41, 1
  %.not50 = icmp eq i64 %42, 0
  br i1 %.not50, label %43, label %lean_dec.exit30

43:                                               ; preds = %lean_dec.exit31
  %44 = load i32, ptr %5, align 4, !tbaa !8
  %45 = icmp sgt i32 %44, 1
  br i1 %45, label %46, label %48, !prof !11

46:                                               ; preds = %43
  %47 = add nsw i32 %44, -1
  store i32 %47, ptr %5, align 4, !tbaa !8
  br label %lean_dec.exit30

48:                                               ; preds = %43
  %.not.i38 = icmp eq i32 %44, 0
  br i1 %.not.i38, label %lean_dec.exit30, label %49

49:                                               ; preds = %48
  tail call void @lean_dec_ref_cold(ptr noundef nonnull %5) #5
  br label %lean_dec.exit30

lean_dec.exit30:                                  ; preds = %49, %48, %46, %lean_dec.exit31
  %50 = ptrtoint ptr %3 to i64
  %51 = and i64 %50, 1
  %.not51 = icmp eq i64 %51, 0
  br i1 %.not51, label %52, label %lean_dec.exit29

52:                                               ; preds = %lean_dec.exit30
  %53 = load i32, ptr %3, align 4, !tbaa !8
  %54 = icmp sgt i32 %53, 1
  br i1 %54, label %55, label %57, !prof !11

55:                                               ; preds = %52
  %56 = add nsw i32 %53, -1
  store i32 %56, ptr %3, align 4, !tbaa !8
  br label %lean_dec.exit29

57:                                               ; preds = %52
  %.not.i40 = icmp eq i32 %53, 0
  br i1 %.not.i40, label %lean_dec.exit29, label %58

58:                                               ; preds = %57
  tail call void @lean_dec_ref_cold(ptr noundef nonnull %3) #5
  br label %lean_dec.exit29

lean_dec.exit29:                                  ; preds = %58, %57, %55, %lean_dec.exit30
  %59 = ptrtoint ptr %2 to i64
  %60 = and i64 %59, 1
  %.not52 = icmp eq i64 %60, 0
  br i1 %.not52, label %61, label %lean_dec.exit28

61:                                               ; preds = %lean_dec.exit29
  %62 = load i32, ptr %2, align 4, !tbaa !8
  %63 = icmp sgt i32 %62, 1
  br i1 %63, label %64, label %66, !prof !11

64:                                               ; preds = %61
  %65 = add nsw i32 %62, -1
  store i32 %65, ptr %2, align 4, !tbaa !8
  br label %lean_dec.exit28

66:                                               ; preds = %61
  %.not.i42 = icmp eq i32 %62, 0
  br i1 %.not.i42, label %lean_dec.exit28, label %67

67:                                               ; preds = %66
  tail call void @lean_dec_ref_cold(ptr noundef nonnull %2) #5
  br label %lean_dec.exit28

lean_dec.exit28:                                  ; preds = %67, %66, %64, %lean_dec.exit29
  %68 = ptrtoint ptr %1 to i64
  %69 = and i64 %68, 1
  %.not53 = icmp eq i64 %69, 0
  br i1 %.not53, label %70, label %lean_dec.exit27

70:                                               ; preds = %lean_dec.exit28
  %71 = load i32, ptr %1, align 4, !tbaa !8
  %72 = icmp sgt i32 %71, 1
  br i1 %72, label %73, label %75, !prof !11

73:                                               ; preds = %70
  %74 = add nsw i32 %71, -1
  store i32 %74, ptr %1, align 4, !tbaa !8
  br label %lean_dec.exit27

75:                                               ; preds = %70
  %.not.i44 = icmp eq i32 %71, 0
  br i1 %.not.i44, label %lean_dec.exit27, label %76

76:                                               ; preds = %75
  tail call void @lean_dec_ref_cold(ptr noundef nonnull %1) #5
  br label %lean_dec.exit27

lean_dec.exit27:                                  ; preds = %76, %75, %73, %lean_dec.exit28
  %77 = ptrtoint ptr %0 to i64
  %78 = and i64 %77, 1
  %.not54 = icmp eq i64 %78, 0
  br i1 %.not54, label %79, label %lean_dec.exit

79:                                               ; preds = %lean_dec.exit27
  %80 = load i32, ptr %0, align 4, !tbaa !8
  %81 = icmp sgt i32 %80, 1
  br i1 %81, label %82, label %84, !prof !11

82:                                               ; preds = %79
  %83 = add nsw i32 %80, -1
  store i32 %83, ptr %0, align 4, !tbaa !8
  br label %lean_dec.exit

84:                                               ; preds = %79
  %.not.i46 = icmp eq i32 %80, 0
  br i1 %.not.i46, label %lean_dec.exit, label %85

85:                                               ; preds = %84
  tail call void @lean_dec_ref_cold(ptr noundef nonnull %0) #5
  br label %lean_dec.exit

lean_dec.exit:                                    ; preds = %85, %84, %82, %lean_dec.exit27
  tail call void @lean_inc_heartbeat() #5
  %86 = tail call noalias ptr @mi_malloc_small(i64 noundef 24) #5
  %87 = icmp eq ptr %86, null
  br i1 %87, label %88, label %lean_alloc_ctor.exit

88:                                               ; preds = %lean_dec.exit
  tail call void @lean_internal_panic_out_of_memory() #6
  unreachable

lean_alloc_ctor.exit:                             ; preds = %lean_dec.exit
  %89 = getelementptr inbounds nuw i8, ptr %86, i64 4
  store i32 1, ptr %86, align 4, !tbaa !8
  store i32 131096, ptr %89, align 4
  %90 = getelementptr inbounds nuw i8, ptr %86, i64 8
  store ptr inttoptr (i64 1 to ptr), ptr %90, align 8, !tbaa !4
  %91 = getelementptr inbounds nuw i8, ptr %86, i64 16
  store ptr %9, ptr %91, align 8, !tbaa !4
  br label %94

92:                                               ; preds = %10
  %93 = tail call ptr @l_Lean_Elab_Tactic_BVDecide_Frontend_Normalize_bv__add___lambda__14(ptr noundef %0, ptr noundef %1, ptr noundef %2, ptr noundef %3, ptr nonnull poison, ptr noundef %5, ptr noundef %6, ptr noundef %7, ptr noundef %8, ptr noundef %9)
  br label %94

94:                                               ; preds = %92, %lean_alloc_ctor.exit
  %.0 = phi ptr [ %86, %lean_alloc_ctor.exit ], [ %93, %92 ]
  ret ptr %.0
}